target datalayout = "e-m:e-p270:32:32-p271:32:32-p272:64:64-i64:64-i128:128-f80:128-n8:16:32:64-S128"
target triple = "x86_64-pc-linux-gnu"

; Function Attrs: nounwind uwtable
define internal signext i16 @ff_cos(i16 noundef zeroext %0) #0 {
  %2 = alloca i16, align 2
  %3 = alloca i8, align 1
  %4 = alloca i8, align 1
  store i16 %0, ptr %2, align 2, !tbaa !11
  call void @llvm.lifetime.start.p0(i64 1, ptr %3) #3
  %5 = load i16, ptr %2, align 2, !tbaa !11
  %6 = trunc i16 %5 to i8
  store i8 %6, ptr %3, align 1, !tbaa !25
  call void @llvm.lifetime.start.p0(i64 1, ptr %4) #3
  %7 = load i16, ptr %2, align 2, !tbaa !11
  %8 = zext i16 %7 to i32
  %9 = ashr i32 %8, 8
  %10 = trunc i32 %9 to i8
  store i8 %10, ptr %4, align 1, !tbaa !25
  %11 = load i8, ptr %4, align 1, !tbaa !25
  %12 = zext i8 %11 to i64
  %13 = getelementptr inbounds nuw [65 x i16], ptr @tab_cos, i64 0, i64 %12
  %14 = load i16, ptr %13, align 2, !tbaa !11
  %15 = sext i16 %14 to i32
  %16 = load i8, ptr %3, align 1, !tbaa !25
  %17 = zext i8 %16 to i32
  %18 = load i8, ptr %4, align 1, !tbaa !25
  %19 = zext i8 %18 to i32
  %20 = add nsw i32 %19, 1
  %21 = sext i32 %20 to i64
  %22 = getelementptr inbounds [65 x i16], ptr @tab_cos, i64 0, i64 %21
  %23 = load i16, ptr %22, align 2, !tbaa !11
  %24 = sext i16 %23 to i32
  %25 = load i8, ptr %4, align 1, !tbaa !25
  %26 = zext i8 %25 to i64
  %27 = getelementptr inbounds nuw [65 x i16], ptr @tab_cos, i64 0, i64 %26
  %28 = load i16, ptr %27, align 2, !tbaa !11
  %29 = sext i16 %28 to i32
  %30 = sub nsw i32 %24, %29
  %31 = mul nsw i32 %17, %30
  %32 = ashr i32 %31, 8
  %33 = add nsw i32 %15, %32
  %34 = trunc i32 %33 to i16
  call void @llvm.lifetime.end.p0(i64 1, ptr %4) #3
  call void @llvm.lifetime.end.p0(i64 1, ptr %3) #3
  ret i16 %34
}

; Function Attrs: nounwind uwtable
define void @ff_acelp_lsf2lsp(ptr noundef %0, ptr noundef %1, i32 noundef %2) #0 {
  %4 = alloca ptr, align 8
  %5 = alloca ptr, align 8
  %6 = alloca i32, align 4
  %7 = alloca i32, align 4
  store ptr %0, ptr %4, align 8, !tbaa !4
  store ptr %1, ptr %5, align 8, !tbaa !4
  store i32 %2, ptr %6, align 4, !tbaa !9
  call void @llvm.lifetime.start.p0(i64 4, ptr %7) #3
  store i32 0, ptr %7, align 4, !tbaa !9
  br label %8

8:                                                ; preds = %27, %3
  %9 = load i32, ptr %7, align 4, !tbaa !9
  %10 = load i32, ptr %6, align 4, !tbaa !9
  %11 = icmp slt i32 %9, %10
  br i1 %11, label %12, label %30

12:                                               ; preds = %8
  %13 = load ptr, ptr %5, align 8, !tbaa !4
  %14 = load i32, ptr %7, align 4, !tbaa !9
  %15 = sext i32 %14 to i64
  %16 = getelementptr inbounds i16, ptr %13, i64 %15
  %17 = load i16, ptr %16, align 2, !tbaa !11
  %18 = sext i16 %17 to i32
  %19 = mul nsw i32 %18, 20861
  %20 = ashr i32 %19, 15
  %21 = trunc i32 %20 to i16
  %22 = call signext i16 @ff_cos(i16 noundef zeroext %21)
  %23 = load ptr, ptr %4, align 8, !tbaa !4
  %24 = load i32, ptr %7, align 4, !tbaa !9
  %25 = sext i32 %24 to i64
  %26 = getelementptr inbounds i16, ptr %23, i64 %25
  store i16 %22, ptr %26, align 2, !tbaa !11
  br label %27

27:                                               ; preds = %12
  %28 = load i32, ptr %7, align 4, !tbaa !9
  %29 = add nsw i32 %28, 1
  store i32 %29, ptr %7, align 4, !tbaa !9
  br label %8, !llvm.loop !24

30:                                               ; preds = %8
  call void @llvm.lifetime.end.p0(i64 4, ptr %7) #3
  ret void
}