; Function Attrs: nofree norecurse nosync nounwind memory(argmem: readwrite) uwtable
define void @ff_acelp_lsf2lsp(ptr noundef writeonly captures(none) %0, ptr noundef readonly captures(none) %1, i32 noundef %2) local_unnamed_addr #0 {
  %4 = icmp sgt i32 %2, 0
  br i1 %4, label %.lr.ph.preheader, label %._crit_edge

.lr.ph.preheader:                                 ; preds = %3
  %wide.trip.count = zext nneg i32 %2 to i64
  br label %.lr.ph

.lr.ph:                                           ; preds = %.lr.ph.preheader, %.lr.ph
  %indvars.iv = phi i64 [ 0, %.lr.ph.preheader ], [ %indvars.iv.next, %.lr.ph ]
  %5 = getelementptr inbounds nuw i16, ptr %1, i64 %indvars.iv
  %6 = load i16, ptr %5, align 2, !tbaa !4
  %7 = sext i16 %6 to i32
  %8 = mul nsw i32 %7, 20861
  %9 = lshr i32 %8, 15
  %10 = trunc i32 %9 to i16
  %11 = lshr i16 %10, 8
  %12 = zext nneg i16 %11 to i64
  %13 = getelementptr inbounds nuw [65 x i16], ptr @tab_cos, i64 0, i64 %12
  %14 = load i16, ptr %13, align 2, !tbaa !4
  %15 = sext i16 %14 to i32
  %16 = and i32 %9, 255
  %narrow.i = add nuw nsw i16 %11, 1
  %17 = zext nneg i16 %narrow.i to i64
  %18 = getelementptr inbounds nuw [65 x i16], ptr @tab_cos, i64 0, i64 %17
  %19 = load i16, ptr %18, align 2, !tbaa !4
  %20 = sext i16 %19 to i32
  %21 = sub nsw i32 %20, %15
  %22 = mul nsw i32 %21, %16
  %23 = lshr i32 %22, 8
  %24 = trunc i32 %23 to i16
  %25 = add i16 %14, %24
  %26 = getelementptr inbounds nuw i16, ptr %0, i64 %indvars.iv
  store i16 %25, ptr %26, align 2, !tbaa !4
  %indvars.iv.next = add nuw nsw i64 %indvars.iv, 1
  %exitcond.not = icmp eq i64 %indvars.iv.next, %wide.trip.count
  br i1 %exitcond.not, label %._crit_edge, label %.lr.ph, !llvm.loop !15

._crit_edge:                                      ; preds = %.lr.ph, %3
  ret void
}